target datalayout = "e-m:e-p270:32:32-p271:32:32-p272:64:64-i64:64-i128:128-f80:128-n8:16:32:64-S128"
target triple = "x86_64-unknown-linux-gnu"

%"class.icu_75::UObject" = type { ptr }
%"class.icu_75::CollationLoader" = type { ptr, ptr, %"class.icu_75::Locale", %"class.icu_75::Locale", [16 x i8], [16 x i8], i32, i8, ptr, ptr, ptr }
%"class.icu_75::Locale" = type <{ %"class.icu_75::UObject", [12 x i8], [6 x i8], [4 x i8], [2 x i8], i32, [4 x i8], ptr, [157 x i8], [3 x i8], ptr, i8, [7 x i8] }>

@.str.1 = private unnamed_addr constant [5 x i8] c"root\00", align 1
@_ZN6icu_7515CollationLoaderC1EPKNS_19CollationCacheEntryERKNS_6LocaleER10UErrorCode = unnamed_addr alias void (ptr, ptr, ptr, ptr), ptr @_ZN6icu_7515CollationLoaderC2EPKNS_19CollationCacheEntryERKNS_6LocaleER10UErrorCode
@_ZN6icu_7515CollationLoaderD1Ev = unnamed_addr alias void (ptr), ptr @_ZN6icu_7515CollationLoaderD2Ev

; Function Attrs: mustprogress nounwind uwtable
define linkonce_odr noundef ptr @_ZNK6icu_756Locale7getNameEv(ptr noundef nonnull align 8 dereferenceable(217) %this) #0 comdat align 2 {
entry:
  %this.addr = alloca ptr, align 8
  store ptr %this, ptr %this.addr, align 8
  %this1 = load ptr, ptr %this.addr, align 8
  %fullName = getelementptr inbounds %"class.icu_75::Locale", ptr %this1, i32 0, i32 7
  %0 = load ptr, ptr %fullName, align 8
  ret ptr %0
}

; Function Attrs: mustprogress nounwind uwtable
define internal noundef signext i8 @_ZL9U_FAILURE10UErrorCode(i32 noundef %code) #0 {
entry:
  %code.addr = alloca i32, align 4
  store i32 %code, ptr %code.addr, align 4
  %0 = load i32, ptr %code.addr, align 4
  %cmp = icmp sgt i32 %0, 0
  %conv = zext i1 %cmp to i8
  ret i8 %conv
}

; Function Attrs: mustprogress uwtable
define noundef ptr @_ZN6icu_7515CollationLoader13loadTailoringERKNS_6LocaleER10UErrorCode(ptr noundef nonnull align 8 dereferenceable(217) %locale, ptr noundef nonnull align 4 dereferenceable(4) %errorCode) #1 align 2 personality ptr @__gxx_personality_v0 {
entry:
  %retval = alloca ptr, align 8
  %locale.addr = alloca ptr, align 8
  %errorCode.addr = alloca ptr, align 8
  %rootEntry = alloca ptr, align 8
  %name = alloca ptr, align 8
  %loader = alloca %"class.icu_75::CollationLoader", align 8
  %exn.slot = alloca ptr, align 8
  %ehselector.slot = alloca i32, align 4
  store ptr %locale, ptr %locale.addr, align 8
  store ptr %errorCode, ptr %errorCode.addr, align 8
  %0 = load ptr, ptr %errorCode.addr, align 8
  %call = call noundef ptr @_ZN6icu_7513CollationRoot17getRootCacheEntryER10UErrorCode(ptr noundef nonnull align 4 dereferenceable(4) %0)
  store ptr %call, ptr %rootEntry, align 8
  %1 = load ptr, ptr %errorCode.addr, align 8
  %2 = load i32, ptr %1, align 4
  %call1 = call noundef signext i8 @_ZL9U_FAILURE10UErrorCode(i32 noundef %2)
  %tobool = icmp ne i8 %call1, 0
  br i1 %tobool, label %if.then, label %if.end

if.then:                                          ; preds = %entry
  store ptr null, ptr %retval, align 8
  br label %return

if.end:                                           ; preds = %entry
  %3 = load ptr, ptr %locale.addr, align 8
  %call2 = call noundef ptr @_ZNK6icu_756Locale7getNameEv(ptr noundef nonnull align 8 dereferenceable(217) %3)
  store ptr %call2, ptr %name, align 8
  %4 = load ptr, ptr %name, align 8
  %5 = load i8, ptr %4, align 1
  %conv = sext i8 %5 to i32
  %cmp = icmp eq i32 %conv, 0
  br i1 %cmp, label %if.then5, label %lor.lhs.false

lor.lhs.false:                                    ; preds = %if.end
  %6 = load ptr, ptr %name, align 8
  %call3 = call i32 @strcmp(ptr noundef %6, ptr noundef @.str.1) #12
  %cmp4 = icmp eq i32 %call3, 0
  br i1 %cmp4, label %if.then5, label %if.end6

if.then5:                                         ; preds = %lor.lhs.false, %if.end
  %7 = load ptr, ptr %rootEntry, align 8
  call void @_ZNK6icu_7512SharedObject6addRefEv(ptr noundef nonnull align 8 dereferenceable(24) %7)
  %8 = load ptr, ptr %rootEntry, align 8
  store ptr %8, ptr %retval, align 8
  br label %return

if.end6:                                          ; preds = %lor.lhs.false
  %9 = load ptr, ptr %errorCode.addr, align 8
  store i32 0, ptr %9, align 4
  %10 = load ptr, ptr %rootEntry, align 8
  %11 = load ptr, ptr %locale.addr, align 8
  %12 = load ptr, ptr %errorCode.addr, align 8
  call void @_ZN6icu_7515CollationLoaderC1EPKNS_19CollationCacheEntryERKNS_6LocaleER10UErrorCode(ptr noundef nonnull align 8 dereferenceable(528) %loader, ptr noundef %10, ptr noundef nonnull align 8 dereferenceable(217) %11, ptr noundef nonnull align 4 dereferenceable(4) %12)
  %13 = load ptr, ptr %errorCode.addr, align 8
  %call7 = invoke noundef ptr @_ZN6icu_7515CollationLoader13getCacheEntryER10UErrorCode(ptr noundef nonnull align 8 dereferenceable(528) %loader, ptr noundef nonnull align 4 dereferenceable(4) %13)
          to label %invoke.cont unwind label %lpad

invoke.cont:                                      ; preds = %if.end6
  store ptr %call7, ptr %retval, align 8
  call void @_ZN6icu_7515CollationLoaderD1Ev(ptr noundef nonnull align 8 dereferenceable(528) %loader) #9
  br label %return

lpad:                                             ; preds = %if.end6
  %14 = landingpad { ptr, i32 }
          cleanup
  %15 = extractvalue { ptr, i32 } %14, 0
  store ptr %15, ptr %exn.slot, align 8
  %16 = extractvalue { ptr, i32 } %14, 1
  store i32 %16, ptr %ehselector.slot, align 4
  call void @_ZN6icu_7515CollationLoaderD1Ev(ptr noundef nonnull align 8 dereferenceable(528) %loader) #9
  br label %eh.resume

return:                                           ; preds = %invoke.cont, %if.then5, %if.then
  %17 = load ptr, ptr %retval, align 8
  ret ptr %17

eh.resume:                                        ; preds = %lpad
  %exn = load ptr, ptr %exn.slot, align 8
  %sel = load i32, ptr %ehselector.slot, align 4
  %lpad.val = insertvalue { ptr, i32 } poison, ptr %exn, 0
  %lpad.val8 = insertvalue { ptr, i32 } %lpad.val, i32 %sel, 1
  resume { ptr, i32 } %lpad.val8
}