; Function Attrs: mustprogress uwtable
define noundef ptr @_ZN6icu_7515CollationLoader13loadTailoringERKNS_6LocaleER10UErrorCode(ptr noundef nonnull align 8 dereferenceable(217) %locale, ptr noundef nonnull align 4 dereferenceable(4) %errorCode) local_unnamed_addr #1 align 2 personality ptr @__gxx_personality_v0 {
entry:
  %loader = alloca %"class.icu_75::CollationLoader", align 8
  %call = tail call noundef ptr @_ZN6icu_7513CollationRoot17getRootCacheEntryER10UErrorCode(ptr noundef nonnull align 4 dereferenceable(4) %errorCode)
  %0 = load i32, ptr %errorCode, align 4
  %cmp.i = icmp slt i32 %0, 1
  br i1 %cmp.i, label %if.end, label %return

if.end:                                           ; preds = %entry
  %fullName.i = getelementptr inbounds i8, ptr %locale, i64 40
  %1 = load ptr, ptr %fullName.i, align 8
  %2 = load i8, ptr %1, align 1
  %cmp = icmp eq i8 %2, 0
  br i1 %cmp, label %if.then5, label %lor.lhs.false

lor.lhs.false:                                    ; preds = %if.end
  %call3 = tail call i32 @strcmp(ptr noundef nonnull dereferenceable(1) %1, ptr noundef nonnull dereferenceable(5) @.str.1) #16
  %cmp4 = icmp eq i32 %call3, 0
  br i1 %cmp4, label %if.then5, label %if.end6

if.then5:                                         ; preds = %lor.lhs.false, %if.end
  tail call void @_ZNK6icu_7512SharedObject6addRefEv(ptr noundef nonnull align 8 dereferenceable(24) %call)
  br label %return

if.end6:                                          ; preds = %lor.lhs.false
  store i32 0, ptr %errorCode, align 4
  call void @_ZN6icu_7515CollationLoaderC1EPKNS_19CollationCacheEntryERKNS_6LocaleER10UErrorCode(ptr noundef nonnull align 8 dereferenceable(528) %loader, ptr noundef %call, ptr noundef nonnull align 8 dereferenceable(217) %locale, ptr noundef nonnull align 4 dereferenceable(4) %errorCode)
  %call7 = invoke noundef ptr @_ZN6icu_7515CollationLoader13getCacheEntryER10UErrorCode(ptr noundef nonnull align 8 dereferenceable(528) %loader, ptr noundef nonnull align 4 dereferenceable(4) %errorCode)
          to label %invoke.cont unwind label %lpad

invoke.cont:                                      ; preds = %if.end6
  call void @_ZN6icu_7515CollationLoaderD1Ev(ptr noundef nonnull align 8 dereferenceable(528) %loader) #13
  br label %return

lpad:                                             ; preds = %if.end6
  %3 = landingpad { ptr, i32 }
          cleanup
  call void @_ZN6icu_7515CollationLoaderD1Ev(ptr noundef nonnull align 8 dereferenceable(528) %loader) #13
  resume { ptr, i32 } %3

return:                                           ; preds = %entry, %invoke.cont, %if.then5
  %retval.0 = phi ptr [ %call, %if.then5 ], [ %call7, %invoke.cont ], [ null, %entry ]
  ret ptr %retval.0
}